target datalayout = "e-m:e-p270:32:32-p271:32:32-p272:64:64-i64:64-i128:128-f80:128-n8:16:32:64-S128"
target triple = "x86_64-pc-linux-gnu"

@PyExc_ValueError = external global ptr, align 8
@PyExc_SystemError = external global ptr, align 8
@.str.10 = private unnamed_addr constant [36 x i8] c"libbzip2 was not compiled correctly\00", align 1
@.str.11 = private unnamed_addr constant [55 x i8] c"Internal error - invalid parameters passed to libbzip2\00", align 1
@PyExc_OSError = external global ptr, align 8
@.str.12 = private unnamed_addr constant [20 x i8] c"Invalid data stream\00", align 1
@.str.13 = private unnamed_addr constant [18 x i8] c"Unknown I/O error\00", align 1
@PyExc_EOFError = external global ptr, align 8
@.str.14 = private unnamed_addr constant [68 x i8] c"Compressed file ended before the logical end-of-stream was detected\00", align 1
@PyExc_RuntimeError = external global ptr, align 8
@.str.15 = private unnamed_addr constant [63 x i8] c"Internal error - Invalid sequence of commands sent to libbzip2\00", align 1
@.str.16 = private unnamed_addr constant [37 x i8] c"Unrecognized error from libbzip2: %d\00", align 1

; Function Attrs: nounwind uwtable
define internal i32 @catch_bz2_error(i32 noundef %0) #0 {
  %2 = alloca i32, align 4
  %3 = alloca i32, align 4
  store i32 %0, ptr %3, align 4, !tbaa !12
  %4 = load i32, ptr %3, align 4, !tbaa !12
  switch i32 %4, label %20 [
    i32 0, label %5
    i32 1, label %5
    i32 2, label %5
    i32 3, label %5
    i32 4, label %5
    i32 -9, label %6
    i32 -2, label %8
    i32 -3, label %10
    i32 -4, label %12
    i32 -5, label %12
    i32 -6, label %14
    i32 -7, label %16
    i32 -1, label %18
  ]

5:                                                ; preds = %1, %1, %1, %1, %1
  store i32 0, ptr %2, align 4
  br label %24

6:                                                ; preds = %1
  %7 = load ptr, ptr @PyExc_SystemError, align 8, !tbaa !3
  call void @PyErr_SetString(ptr noundef %7, ptr noundef @.str.10)
  store i32 1, ptr %2, align 4
  br label %24

8:                                                ; preds = %1
  %9 = load ptr, ptr @PyExc_ValueError, align 8, !tbaa !3
  call void @PyErr_SetString(ptr noundef %9, ptr noundef @.str.11)
  store i32 1, ptr %2, align 4
  br label %24

10:                                               ; preds = %1
  %11 = call ptr @PyErr_NoMemory()
  store i32 1, ptr %2, align 4
  br label %24

12:                                               ; preds = %1, %1
  %13 = load ptr, ptr @PyExc_OSError, align 8, !tbaa !3
  call void @PyErr_SetString(ptr noundef %13, ptr noundef @.str.12)
  store i32 1, ptr %2, align 4
  br label %24

14:                                               ; preds = %1
  %15 = load ptr, ptr @PyExc_OSError, align 8, !tbaa !3
  call void @PyErr_SetString(ptr noundef %15, ptr noundef @.str.13)
  store i32 1, ptr %2, align 4
  br label %24

16:                                               ; preds = %1
  %17 = load ptr, ptr @PyExc_EOFError, align 8, !tbaa !3
  call void @PyErr_SetString(ptr noundef %17, ptr noundef @.str.14)
  store i32 1, ptr %2, align 4
  br label %24

18:                                               ; preds = %1
  %19 = load ptr, ptr @PyExc_RuntimeError, align 8, !tbaa !3
  call void @PyErr_SetString(ptr noundef %19, ptr noundef @.str.15)
  store i32 1, ptr %2, align 4
  br label %24

20:                                               ; preds = %1
  %21 = load ptr, ptr @PyExc_OSError, align 8, !tbaa !3
  %22 = load i32, ptr %3, align 4, !tbaa !12
  %23 = call ptr (ptr, ptr, ...) @PyErr_Format(ptr noundef %21, ptr noundef @.str.16, i32 noundef %22)
  store i32 1, ptr %2, align 4
  br label %24

24:                                               ; preds = %20, %18, %16, %14, %12, %10, %8, %6, %5
  %25 = load i32, ptr %2, align 4
  ret i32 %25
}