; Function Attrs: nounwind uwtable
define internal fastcc range(i32 0, 2) i32 @catch_bz2_error(i32 noundef %0) unnamed_addr #0 {
  switch i32 %0, label %16 [
    i32 0, label %19
    i32 1, label %19
    i32 2, label %19
    i32 3, label %19
    i32 4, label %19
    i32 -9, label %2
    i32 -2, label %4
    i32 -3, label %6
    i32 -4, label %8
    i32 -5, label %8
    i32 -6, label %10
    i32 -7, label %12
    i32 -1, label %14
  ]

2:                                                ; preds = %1
  %3 = load ptr, ptr @PyExc_SystemError, align 8, !tbaa !30
  tail call void @PyErr_SetString(ptr noundef %3, ptr noundef nonnull @.str.10) #7
  br label %19

4:                                                ; preds = %1
  %5 = load ptr, ptr @PyExc_ValueError, align 8, !tbaa !30
  tail call void @PyErr_SetString(ptr noundef %5, ptr noundef nonnull @.str.11) #7
  br label %19

6:                                                ; preds = %1
  %7 = tail call ptr @PyErr_NoMemory() #7
  br label %19

8:                                                ; preds = %1, %1
  %9 = load ptr, ptr @PyExc_OSError, align 8, !tbaa !30
  tail call void @PyErr_SetString(ptr noundef %9, ptr noundef nonnull @.str.12) #7
  br label %19

10:                                               ; preds = %1
  %11 = load ptr, ptr @PyExc_OSError, align 8, !tbaa !30
  tail call void @PyErr_SetString(ptr noundef %11, ptr noundef nonnull @.str.13) #7
  br label %19

12:                                               ; preds = %1
  %13 = load ptr, ptr @PyExc_EOFError, align 8, !tbaa !30
  tail call void @PyErr_SetString(ptr noundef %13, ptr noundef nonnull @.str.14) #7
  br label %19

14:                                               ; preds = %1
  %15 = load ptr, ptr @PyExc_RuntimeError, align 8, !tbaa !30
  tail call void @PyErr_SetString(ptr noundef %15, ptr noundef nonnull @.str.15) #7
  br label %19

16:                                               ; preds = %1
  %17 = load ptr, ptr @PyExc_OSError, align 8, !tbaa !30
  %18 = tail call ptr (ptr, ptr, ...) @PyErr_Format(ptr noundef %17, ptr noundef nonnull @.str.16, i32 noundef %0) #7
  br label %19

19:                                               ; preds = %1, %1, %1, %1, %1, %16, %14, %12, %10, %8, %6, %4, %2
  %.0 = phi i32 [ 1, %16 ], [ 1, %14 ], [ 1, %12 ], [ 1, %10 ], [ 1, %8 ], [ 1, %6 ], [ 1, %4 ], [ 1, %2 ], [ 0, %1 ], [ 0, %1 ], [ 0, %1 ], [ 0, %1 ], [ 0, %1 ]
  ret i32 %.0
}